; Function Attrs: mustprogress uwtable
define hidden void @_ZN3sat3mus8set_coreEv(ptr noundef nonnull align 8 dereferenceable(44) %this) local_unnamed_addr #6 align 2 {
entry:
  %m_mus = getelementptr inbounds i8, ptr %this, i64 16
  %m_core = getelementptr inbounds i8, ptr %this, i64 8
  br label %for.cond.i

for.cond.i:                                       ; preds = %_ZN6vectorIN3sat7literalELb0EjE9push_backERKS1_.exit.i, %entry
  %indvars.iv.i = phi i64 [ %indvars.iv.next.i, %_ZN6vectorIN3sat7literalELb0EjE9push_backERKS1_.exit.i ], [ 0, %entry ]
  %0 = load ptr, ptr %m_core, align 8
  %cmp.i.i = icmp eq ptr %0, null
  br i1 %cmp.i.i, label %_ZNK6vectorIN3sat7literalELb0EjE4sizeEv.exit.i, label %if.end.i.i

if.end.i.i:                                       ; preds = %for.cond.i
  %arrayidx.i.i = getelementptr inbounds i8, ptr %0, i64 -4
  %1 = load i32, ptr %arrayidx.i.i, align 4
  br label %_ZNK6vectorIN3sat7literalELb0EjE4sizeEv.exit.i

_ZNK6vectorIN3sat7literalELb0EjE4sizeEv.exit.i:   ; preds = %if.end.i.i, %for.cond.i
  %retval.0.i.i = phi i32 [ %1, %if.end.i.i ], [ 0, %for.cond.i ]
  %2 = zext i32 %retval.0.i.i to i64
  %cmp.i = icmp ult i64 %indvars.iv.i, %2
  br i1 %cmp.i, label %for.body.i, label %_ZN6vectorIN3sat7literalELb0EjE6appendERKS2_.exit

for.body.i:                                       ; preds = %_ZNK6vectorIN3sat7literalELb0EjE4sizeEv.exit.i
  %arrayidx.i4.i = getelementptr inbounds %"class.sat::literal", ptr %0, i64 %indvars.iv.i
  %3 = load ptr, ptr %m_mus, align 8
  %cmp.i5.i = icmp eq ptr %3, null
  br i1 %cmp.i5.i, label %if.then.i.i, label %lor.lhs.false.i.i

lor.lhs.false.i.i:                                ; preds = %for.body.i
  %arrayidx.i6.i = getelementptr inbounds i8, ptr %3, i64 -4
  %4 = load i32, ptr %arrayidx.i6.i, align 4
  %arrayidx4.i.i = getelementptr inbounds i8, ptr %3, i64 -8
  %5 = load i32, ptr %arrayidx4.i.i, align 4
  %cmp5.i.i = icmp eq i32 %4, %5
  br i1 %cmp5.i.i, label %if.then.i.i, label %_ZN6vectorIN3sat7literalELb0EjE9push_backERKS1_.exit.i

if.then.i.i:                                      ; preds = %lor.lhs.false.i.i, %for.body.i
  tail call void @_ZN6vectorIN3sat7literalELb0EjE13expand_vectorEv(ptr noundef nonnull align 8 dereferenceable(8) %m_mus)
  %.pre.i.i = load ptr, ptr %m_mus, align 8
  %arrayidx8.phi.trans.insert.i.i = getelementptr inbounds i8, ptr %.pre.i.i, i64 -4
  %.pre1.i.i = load i32, ptr %arrayidx8.phi.trans.insert.i.i, align 4
  br label %_ZN6vectorIN3sat7literalELb0EjE9push_backERKS1_.exit.i

_ZN6vectorIN3sat7literalELb0EjE9push_backERKS1_.exit.i: ; preds = %if.then.i.i, %lor.lhs.false.i.i
  %6 = phi i32 [ %.pre1.i.i, %if.then.i.i ], [ %4, %lor.lhs.false.i.i ]
  %7 = phi ptr [ %.pre.i.i, %if.then.i.i ], [ %3, %lor.lhs.false.i.i ]
  %idx.ext.i.i = zext i32 %6 to i64
  %add.ptr.i.i = getelementptr inbounds %"class.sat::literal", ptr %7, i64 %idx.ext.i.i
  %8 = load i32, ptr %arrayidx.i4.i, align 4
  store i32 %8, ptr %add.ptr.i.i, align 4
  %9 = load ptr, ptr %m_mus, align 8
  %arrayidx10.i.i = getelementptr inbounds i8, ptr %9, i64 -4
  %10 = load i32, ptr %arrayidx10.i.i, align 4
  %inc.i.i = add i32 %10, 1
  store i32 %inc.i.i, ptr %arrayidx10.i.i, align 4
  %indvars.iv.next.i = add nuw nsw i64 %indvars.iv.i, 1
  br label %for.cond.i, !llvm.loop !4

_ZN6vectorIN3sat7literalELb0EjE6appendERKS2_.exit: ; preds = %_ZNK6vectorIN3sat7literalELb0EjE4sizeEv.exit.i
  %11 = load ptr, ptr %this, align 8
  %m_core2 = getelementptr inbounds i8, ptr %11, i64 4112
  %12 = load ptr, ptr %m_core2, align 8
  %tobool.not.i = icmp eq ptr %12, null
  br i1 %tobool.not.i, label %_ZN6vectorIN3sat7literalELb0EjE5resetEv.exit, label %if.then.i

if.then.i:                                        ; preds = %_ZN6vectorIN3sat7literalELb0EjE6appendERKS2_.exit
  %arrayidx.i = getelementptr inbounds i8, ptr %12, i64 -4
  store i32 0, ptr %arrayidx.i, align 4
  %.pre = load ptr, ptr %this, align 8
  br label %_ZN6vectorIN3sat7literalELb0EjE5resetEv.exit

_ZN6vectorIN3sat7literalELb0EjE5resetEv.exit:     ; preds = %_ZN6vectorIN3sat7literalELb0EjE6appendERKS2_.exit, %if.then.i
  %13 = phi ptr [ %11, %_ZN6vectorIN3sat7literalELb0EjE6appendERKS2_.exit ], [ %.pre, %if.then.i ]
  %m_core4 = getelementptr inbounds i8, ptr %13, i64 4112
  br label %for.cond.i1

for.cond.i1:                                      ; preds = %_ZN6vectorIN3sat7literalELb0EjE9push_backERKS1_.exit.i16, %_ZN6vectorIN3sat7literalELb0EjE5resetEv.exit
  %indvars.iv.i2 = phi i64 [ %indvars.iv.next.i21, %_ZN6vectorIN3sat7literalELb0EjE9push_backERKS1_.exit.i16 ], [ 0, %_ZN6vectorIN3sat7literalELb0EjE5resetEv.exit ]
  %14 = load ptr, ptr %m_mus, align 8
  %cmp.i.i3 = icmp eq ptr %14, null
  br i1 %cmp.i.i3, label %_ZNK6vectorIN3sat7literalELb0EjE4sizeEv.exit.i6, label %if.end.i.i4

if.end.i.i4:                                      ; preds = %for.cond.i1
  %arrayidx.i.i5 = getelementptr inbounds i8, ptr %14, i64 -4
  %15 = load i32, ptr %arrayidx.i.i5, align 4
  br label %_ZNK6vectorIN3sat7literalELb0EjE4sizeEv.exit.i6

_ZNK6vectorIN3sat7literalELb0EjE4sizeEv.exit.i6:  ; preds = %if.end.i.i4, %for.cond.i1
  %retval.0.i.i7 = phi i32 [ %15, %if.end.i.i4 ], [ 0, %for.cond.i1 ]
  %16 = zext i32 %retval.0.i.i7 to i64
  %cmp.i8 = icmp ult i64 %indvars.iv.i2, %16
  br i1 %cmp.i8, label %for.body.i9, label %_ZN6vectorIN3sat7literalELb0EjE6appendERKS2_.exit26

for.body.i9:                                      ; preds = %_ZNK6vectorIN3sat7literalELb0EjE4sizeEv.exit.i6
  %arrayidx.i4.i10 = getelementptr inbounds %"class.sat::literal", ptr %14, i64 %indvars.iv.i2
  %17 = load ptr, ptr %m_core4, align 8
  %cmp.i5.i11 = icmp eq ptr %17, null
  br i1 %cmp.i5.i11, label %if.then.i.i22, label %lor.lhs.false.i.i12

lor.lhs.false.i.i12:                              ; preds = %for.body.i9
  %arrayidx.i6.i13 = getelementptr inbounds i8, ptr %17, i64 -4
  %18 = load i32, ptr %arrayidx.i6.i13, align 4
  %arrayidx4.i.i14 = getelementptr inbounds i8, ptr %17, i64 -8
  %19 = load i32, ptr %arrayidx4.i.i14, align 4
  %cmp5.i.i15 = icmp eq i32 %18, %19
  br i1 %cmp5.i.i15, label %if.then.i.i22, label %_ZN6vectorIN3sat7literalELb0EjE9push_backERKS1_.exit.i16

if.then.i.i22:                                    ; preds = %lor.lhs.false.i.i12, %for.body.i9
  tail call void @_ZN6vectorIN3sat7literalELb0EjE13expand_vectorEv(ptr noundef nonnull align 8 dereferenceable(8) %m_core4)
  %.pre.i.i23 = load ptr, ptr %m_core4, align 8
  %arrayidx8.phi.trans.insert.i.i24 = getelementptr inbounds i8, ptr %.pre.i.i23, i64 -4
  %.pre1.i.i25 = load i32, ptr %arrayidx8.phi.trans.insert.i.i24, align 4
  br label %_ZN6vectorIN3sat7literalELb0EjE9push_backERKS1_.exit.i16

_ZN6vectorIN3sat7literalELb0EjE9push_backERKS1_.exit.i16: ; preds = %if.then.i.i22, %lor.lhs.false.i.i12
  %20 = phi i32 [ %.pre1.i.i25, %if.then.i.i22 ], [ %18, %lor.lhs.false.i.i12 ]
  %21 = phi ptr [ %.pre.i.i23, %if.then.i.i22 ], [ %17, %lor.lhs.false.i.i12 ]
  %idx.ext.i.i17 = zext i32 %20 to i64
  %add.ptr.i.i18 = getelementptr inbounds %"class.sat::literal", ptr %21, i64 %idx.ext.i.i17
  %22 = load i32, ptr %arrayidx.i4.i10, align 4
  store i32 %22, ptr %add.ptr.i.i18, align 4
  %23 = load ptr, ptr %m_core4, align 8
  %arrayidx10.i.i19 = getelementptr inbounds i8, ptr %23, i64 -4
  %24 = load i32, ptr %arrayidx10.i.i19, align 4
  %inc.i.i20 = add i32 %24, 1
  store i32 %inc.i.i20, ptr %arrayidx10.i.i19, align 4
  %indvars.iv.next.i21 = add nuw nsw i64 %indvars.iv.i2, 1
  br label %for.cond.i1, !llvm.loop !4

_ZN6vectorIN3sat7literalELb0EjE6appendERKS2_.exit26: ; preds = %_ZNK6vectorIN3sat7literalELb0EjE4sizeEv.exit.i6
  ret void
}